; Function Attrs: mustprogress nofree norecurse nosync nounwind willreturn memory(argmem: readwrite) uwtable
define hidden void @_ZNK24internal_word_Relocation9copy_intoER16RelocationHolder(ptr nocapture noundef nonnull readonly align 8 dereferenceable(36) %0, ptr nocapture noundef nonnull writeonly align 8 dereferenceable(40) %1) unnamed_addr #2 align 2 {
  store ptr getelementptr inbounds inrange(-16, 72) (i8, ptr @_ZTV10Relocation, i64 16), ptr %1, align 8
  %3 = getelementptr inbounds i8, ptr %1, i64 8
  %4 = getelementptr inbounds i8, ptr %0, i64 8
  tail call void @llvm.memcpy.p0.p0.i64(ptr noundef nonnull align 8 dereferenceable(12) %3, ptr noundef nonnull align 8 dereferenceable(12) %4, i64 12, i1 false)
  store ptr getelementptr inbounds inrange(-16, 72) (i8, ptr @_ZTV24internal_word_Relocation, i64 16), ptr %1, align 8
  %5 = getelementptr inbounds i8, ptr %1, i64 24
  %6 = getelementptr inbounds i8, ptr %0, i64 24
  tail call void @llvm.memcpy.p0.p0.i64(ptr noundef nonnull align 8 dereferenceable(12) %5, ptr noundef nonnull align 8 dereferenceable(12) %6, i64 12, i1 false)
  ret void
}